target datalayout = "e-m:e-p270:32:32-p271:32:32-p272:64:64-i64:64-i128:128-f80:128-n8:16:32:64-S128"
target triple = "x86_64-pc-linux-gnu"

%"class.std::__cxx11::basic_string" = type { %"struct.std::__cxx11::basic_string<char>::_Alloc_hider", i64, %union.anon }
%"struct.std::__cxx11::basic_string<char>::_Alloc_hider" = type { ptr }
%union.anon = type { i64, [8 x i8] }

@.str.21 = private unnamed_addr constant [4 x i8] c"MD5\00", align 1
@.str.22 = private unnamed_addr constant [5 x i8] c"SHA1\00", align 1
@.str.23 = private unnamed_addr constant [7 x i8] c"SHA224\00", align 1
@.str.24 = private unnamed_addr constant [7 x i8] c"SHA256\00", align 1
@.str.25 = private unnamed_addr constant [7 x i8] c"SHA384\00", align 1
@.str.26 = private unnamed_addr constant [7 x i8] c"SHA512\00", align 1
@.str.27 = private unnamed_addr constant [21 x i8] c"Unknown digest: '%s'\00", align 1

; Function Attrs: mustprogress nounwind uwtable
define available_externally noundef ptr @_ZNKSt7__cxx1112basic_stringIcSt11char_traitsIcESaIcEE7_M_dataEv(ptr noundef nonnull align 8 dereferenceable(32) %0) #4 align 2 {
  %2 = alloca ptr, align 8
  store ptr %0, ptr %2, align 8, !tbaa !22
  %3 = load ptr, ptr %2, align 8
  %4 = getelementptr inbounds nuw %"class.std::__cxx11::basic_string", ptr %3, i32 0, i32 0
  %5 = getelementptr inbounds nuw %"struct.std::__cxx11::basic_string<char>::_Alloc_hider", ptr %4, i32 0, i32 0
  %6 = load ptr, ptr %5, align 8, !tbaa !99
  ret ptr %6
}

; Function Attrs: mustprogress nounwind uwtable
define available_externally noundef ptr @_ZNKSt7__cxx1112basic_stringIcSt11char_traitsIcESaIcEE5c_strEv(ptr noundef nonnull align 8 dereferenceable(32) %0) #4 align 2 {
  %2 = alloca ptr, align 8
  store ptr %0, ptr %2, align 8, !tbaa !22
  %3 = load ptr, ptr %2, align 8
  %4 = call noundef ptr @_ZNKSt7__cxx1112basic_stringIcSt11char_traitsIcESaIcEE7_M_dataEv(ptr noundef nonnull align 8 dereferenceable(32) %3)
  ret ptr %4
}

; Function Attrs: inlinehint mustprogress nounwind uwtable
define linkonce_odr noundef zeroext i1 @_ZSteqIcSt11char_traitsIcESaIcEEbRKNSt7__cxx1112basic_stringIT_T0_T1_EEPKS5_(ptr noundef nonnull align 8 dereferenceable(32) %0, ptr noundef %1) #7 comdat {
  %3 = alloca ptr, align 8
  %4 = alloca ptr, align 8
  store ptr %0, ptr %3, align 8, !tbaa !22
  store ptr %1, ptr %4, align 8, !tbaa !15
  %5 = load ptr, ptr %3, align 8, !tbaa !22
  %6 = load ptr, ptr %4, align 8, !tbaa !15
  %7 = call noundef i32 @_ZNKSt7__cxx1112basic_stringIcSt11char_traitsIcESaIcEE7compareEPKc(ptr noundef nonnull align 8 dereferenceable(32) %5, ptr noundef %6) #17
  %8 = icmp eq i32 %7, 0
  ret i1 %8
}

; Function Attrs: mustprogress uwtable
define internal noundef ptr @_ZL9GetDigestP8FileTestRKNSt7__cxx1112basic_stringIcSt11char_traitsIcESaIcEEE(ptr noundef %0, ptr noundef nonnull align 8 dereferenceable(32) %1) #5 {
  %3 = alloca ptr, align 8
  %4 = alloca ptr, align 8
  %5 = alloca ptr, align 8
  store ptr %0, ptr %4, align 8, !tbaa !19
  store ptr %1, ptr %5, align 8, !tbaa !22
  %6 = load ptr, ptr %5, align 8, !tbaa !22
  %7 = call noundef zeroext i1 @_ZSteqIcSt11char_traitsIcESaIcEEbRKNSt7__cxx1112basic_stringIT_T0_T1_EEPKS5_(ptr noundef nonnull align 8 dereferenceable(32) %6, ptr noundef @.str.21)
  br i1 %7, label %8, label %10

8:                                                ; preds = %2
  %9 = call ptr @EVP_md5()
  store ptr %9, ptr %3, align 8
  br label %44

10:                                               ; preds = %2
  %11 = load ptr, ptr %5, align 8, !tbaa !22
  %12 = call noundef zeroext i1 @_ZSteqIcSt11char_traitsIcESaIcEEbRKNSt7__cxx1112basic_stringIT_T0_T1_EEPKS5_(ptr noundef nonnull align 8 dereferenceable(32) %11, ptr noundef @.str.22)
  br i1 %12, label %13, label %15

13:                                               ; preds = %10
  %14 = call ptr @EVP_sha1()
  store ptr %14, ptr %3, align 8
  br label %44

15:                                               ; preds = %10
  %16 = load ptr, ptr %5, align 8, !tbaa !22
  %17 = call noundef zeroext i1 @_ZSteqIcSt11char_traitsIcESaIcEEbRKNSt7__cxx1112basic_stringIT_T0_T1_EEPKS5_(ptr noundef nonnull align 8 dereferenceable(32) %16, ptr noundef @.str.23)
  br i1 %17, label %18, label %20

18:                                               ; preds = %15
  %19 = call ptr @EVP_sha224()
  store ptr %19, ptr %3, align 8
  br label %44

20:                                               ; preds = %15
  %21 = load ptr, ptr %5, align 8, !tbaa !22
  %22 = call noundef zeroext i1 @_ZSteqIcSt11char_traitsIcESaIcEEbRKNSt7__cxx1112basic_stringIT_T0_T1_EEPKS5_(ptr noundef nonnull align 8 dereferenceable(32) %21, ptr noundef @.str.24)
  br i1 %22, label %23, label %25

23:                                               ; preds = %20
  %24 = call ptr @EVP_sha256()
  store ptr %24, ptr %3, align 8
  br label %44

25:                                               ; preds = %20
  %26 = load ptr, ptr %5, align 8, !tbaa !22
  %27 = call noundef zeroext i1 @_ZSteqIcSt11char_traitsIcESaIcEEbRKNSt7__cxx1112basic_stringIT_T0_T1_EEPKS5_(ptr noundef nonnull align 8 dereferenceable(32) %26, ptr noundef @.str.25)
  br i1 %27, label %28, label %30

28:                                               ; preds = %25
  %29 = call ptr @EVP_sha384()
  store ptr %29, ptr %3, align 8
  br label %44

30:                                               ; preds = %25
  %31 = load ptr, ptr %5, align 8, !tbaa !22
  %32 = call noundef zeroext i1 @_ZSteqIcSt11char_traitsIcESaIcEEbRKNSt7__cxx1112basic_stringIT_T0_T1_EEPKS5_(ptr noundef nonnull align 8 dereferenceable(32) %31, ptr noundef @.str.26)
  br i1 %32, label %33, label %35

33:                                               ; preds = %30
  %34 = call ptr @EVP_sha512()
  store ptr %34, ptr %3, align 8
  br label %44

35:                                               ; preds = %30
  br label %36

36:                                               ; preds = %35
  br label %37

37:                                               ; preds = %36
  br label %38

38:                                               ; preds = %37
  br label %39

39:                                               ; preds = %38
  br label %40

40:                                               ; preds = %39
  %41 = load ptr, ptr %4, align 8, !tbaa !19
  %42 = load ptr, ptr %5, align 8, !tbaa !22
  %43 = call noundef ptr @_ZNKSt7__cxx1112basic_stringIcSt11char_traitsIcESaIcEE5c_strEv(ptr noundef nonnull align 8 dereferenceable(32) %42) #17
  call void (ptr, ptr, ...) @_ZN8FileTest9PrintLineEPKcz(ptr noundef nonnull align 8 dereferenceable(176) %41, ptr noundef @.str.27, ptr noundef %43)
  store ptr null, ptr %3, align 8
  br label %44

44:                                               ; preds = %40, %33, %28, %23, %18, %13, %8
  %45 = load ptr, ptr %3, align 8
  ret ptr %45
}