; Function Attrs: mustprogress uwtable
define internal fastcc noundef ptr @_ZL9GetDigestP8FileTestRKNSt7__cxx1112basic_stringIcSt11char_traitsIcESaIcEEE(ptr noundef %0, ptr noundef nonnull align 8 dereferenceable(32) %1) unnamed_addr #4 {
  %3 = tail call noundef i32 @_ZNKSt7__cxx1112basic_stringIcSt11char_traitsIcESaIcEE7compareEPKc(ptr noundef nonnull align 8 dereferenceable(32) %1, ptr noundef nonnull @.str.21) #20
  %4 = icmp eq i32 %3, 0
  br i1 %4, label %5, label %7

5:                                                ; preds = %2
  %6 = tail call ptr @EVP_md5()
  br label %34

7:                                                ; preds = %2
  %8 = tail call noundef i32 @_ZNKSt7__cxx1112basic_stringIcSt11char_traitsIcESaIcEE7compareEPKc(ptr noundef nonnull align 8 dereferenceable(32) %1, ptr noundef nonnull @.str.22) #20
  %9 = icmp eq i32 %8, 0
  br i1 %9, label %10, label %12

10:                                               ; preds = %7
  %11 = tail call ptr @EVP_sha1()
  br label %34

12:                                               ; preds = %7
  %13 = tail call noundef i32 @_ZNKSt7__cxx1112basic_stringIcSt11char_traitsIcESaIcEE7compareEPKc(ptr noundef nonnull align 8 dereferenceable(32) %1, ptr noundef nonnull @.str.23) #20
  %14 = icmp eq i32 %13, 0
  br i1 %14, label %15, label %17

15:                                               ; preds = %12
  %16 = tail call ptr @EVP_sha224()
  br label %34

17:                                               ; preds = %12
  %18 = tail call noundef i32 @_ZNKSt7__cxx1112basic_stringIcSt11char_traitsIcESaIcEE7compareEPKc(ptr noundef nonnull align 8 dereferenceable(32) %1, ptr noundef nonnull @.str.24) #20
  %19 = icmp eq i32 %18, 0
  br i1 %19, label %20, label %22

20:                                               ; preds = %17
  %21 = tail call ptr @EVP_sha256()
  br label %34

22:                                               ; preds = %17
  %23 = tail call noundef i32 @_ZNKSt7__cxx1112basic_stringIcSt11char_traitsIcESaIcEE7compareEPKc(ptr noundef nonnull align 8 dereferenceable(32) %1, ptr noundef nonnull @.str.25) #20
  %24 = icmp eq i32 %23, 0
  br i1 %24, label %25, label %27

25:                                               ; preds = %22
  %26 = tail call ptr @EVP_sha384()
  br label %34

27:                                               ; preds = %22
  %28 = tail call noundef i32 @_ZNKSt7__cxx1112basic_stringIcSt11char_traitsIcESaIcEE7compareEPKc(ptr noundef nonnull align 8 dereferenceable(32) %1, ptr noundef nonnull @.str.26) #20
  %29 = icmp eq i32 %28, 0
  br i1 %29, label %30, label %32

30:                                               ; preds = %27
  %31 = tail call ptr @EVP_sha512()
  br label %34

32:                                               ; preds = %27
  %33 = load ptr, ptr %1, align 8, !tbaa !23
  tail call void (ptr, ptr, ...) @_ZN8FileTest9PrintLineEPKcz(ptr noundef nonnull align 8 dereferenceable(176) %0, ptr noundef nonnull @.str.27, ptr noundef %33)
  br label %34

34:                                               ; preds = %32, %30, %25, %20, %15, %10, %5
  %.0 = phi ptr [ %6, %5 ], [ %11, %10 ], [ %16, %15 ], [ %21, %20 ], [ %26, %25 ], [ %31, %30 ], [ null, %32 ]
  ret ptr %.0
}